target datalayout = "e-m:e-p270:32:32-p271:32:32-p272:64:64-i64:64-i128:128-f80:128-n8:16:32:64-S128"
target triple = "x86_64-pc-linux-gnu"

@g_tres_count = external global i32, align 4

; Function Attrs: nounwind uwtable
define internal zeroext i1 @_validate_tres_limits_for_assoc(ptr noundef %0, ptr noundef %1, i64 noundef %2, ptr noundef %3, ptr noundef %4, ptr noundef %5, i1 noundef zeroext %6, i1 noundef zeroext %7, i1 noundef zeroext %8) #0 {
  %10 = alloca i1, align 1
  %11 = alloca ptr, align 8
  %12 = alloca ptr, align 8
  %13 = alloca i64, align 8
  %14 = alloca ptr, align 8
  %15 = alloca ptr, align 8
  %16 = alloca ptr, align 8
  %17 = alloca i8, align 1
  %18 = alloca i8, align 1
  %19 = alloca i8, align 1
  %20 = alloca i32, align 4
  %21 = alloca i64, align 8
  %22 = alloca i32, align 4
  store ptr %0, ptr %11, align 8
  store ptr %1, ptr %12, align 8
  store i64 %2, ptr %13, align 8
  store ptr %3, ptr %14, align 8
  store ptr %4, ptr %15, align 8
  store ptr %5, ptr %16, align 8
  %23 = zext i1 %6 to i8
  store i8 %23, ptr %17, align 1
  %24 = zext i1 %7 to i8
  store i8 %24, ptr %18, align 1
  %25 = zext i1 %8 to i8
  store i8 %25, ptr %19, align 1
  call void @llvm.lifetime.start.p0(i64 4, ptr %20) #8
  call void @llvm.lifetime.start.p0(i64 8, ptr %21) #8
  %26 = load i8, ptr %17, align 1, !range !8, !noundef !9
  %27 = trunc i8 %26 to i1
  br i1 %27, label %29, label %28

28:                                               ; preds = %9
  store i1 true, ptr %10, align 1
  store i32 1, ptr %22, align 4
  br label %109

29:                                               ; preds = %9
  store i32 0, ptr %20, align 4
  br label %30

30:                                               ; preds = %105, %29
  %31 = load i32, ptr %20, align 4
  %32 = load i32, ptr @g_tres_count, align 4
  %33 = icmp ult i32 %31, %32
  br i1 %33, label %34, label %108

34:                                               ; preds = %30
  %35 = load i32, ptr %20, align 4
  %36 = load ptr, ptr %11, align 8
  store i32 %35, ptr %36, align 4
  %37 = load ptr, ptr %16, align 8
  %38 = load i32, ptr %20, align 4
  %39 = sext i32 %38 to i64
  %40 = getelementptr inbounds i16, ptr %37, i64 %39
  %41 = load i16, ptr %40, align 2
  %42 = zext i16 %41 to i32
  %43 = icmp eq i32 %42, 65535
  br i1 %43, label %68, label %44

44:                                               ; preds = %34
  %45 = load ptr, ptr %15, align 8
  %46 = load i32, ptr %20, align 4
  %47 = sext i32 %46 to i64
  %48 = getelementptr inbounds i64, ptr %45, i64 %47
  %49 = load i64, ptr %48, align 8
  %50 = icmp ne i64 %49, -1
  br i1 %50, label %68, label %51

51:                                               ; preds = %44
  %52 = load ptr, ptr %14, align 8
  %53 = load i32, ptr %20, align 4
  %54 = sext i32 %53 to i64
  %55 = getelementptr inbounds i64, ptr %52, i64 %54
  %56 = load i64, ptr %55, align 8
  %57 = icmp eq i64 %56, -1
  br i1 %57, label %68, label %58

58:                                               ; preds = %51
  %59 = load ptr, ptr %12, align 8
  %60 = load i32, ptr %20, align 4
  %61 = sext i32 %60 to i64
  %62 = getelementptr inbounds i64, ptr %59, i64 %61
  %63 = load i64, ptr %62, align 8
  %64 = icmp ne i64 %63, 0
  br i1 %64, label %69, label %65

65:                                               ; preds = %58
  %66 = load i8, ptr %18, align 1, !range !8, !noundef !9
  %67 = trunc i8 %66 to i1
  br i1 %67, label %69, label %68

68:                                               ; preds = %65, %51, %44, %34
  br label %105

69:                                               ; preds = %65, %58
  %70 = load ptr, ptr %12, align 8
  %71 = load i32, ptr %20, align 4
  %72 = sext i32 %71 to i64
  %73 = getelementptr inbounds i64, ptr %70, i64 %72
  %74 = load i64, ptr %73, align 8
  store i64 %74, ptr %21, align 8
  %75 = load i64, ptr %13, align 8
  %76 = icmp ne i64 %75, 0
  br i1 %76, label %77, label %81

77:                                               ; preds = %69
  %78 = load i64, ptr %13, align 8
  %79 = load i64, ptr %21, align 8
  %80 = udiv i64 %79, %78
  store i64 %80, ptr %21, align 8
  br label %81

81:                                               ; preds = %77, %69
  %82 = load i8, ptr %19, align 1, !range !8, !noundef !9
  %83 = trunc i8 %82 to i1
  br i1 %83, label %84, label %94

84:                                               ; preds = %81
  %85 = load i64, ptr %21, align 8
  %86 = load ptr, ptr %14, align 8
  %87 = load i32, ptr %20, align 4
  %88 = sext i32 %87 to i64
  %89 = getelementptr inbounds i64, ptr %86, i64 %88
  %90 = load i64, ptr %89, align 8
  %91 = icmp ugt i64 %85, %90
  br i1 %91, label %92, label %93

92:                                               ; preds = %84
  store i1 false, ptr %10, align 1
  store i32 1, ptr %22, align 4
  br label %109

93:                                               ; preds = %84
  br label %104

94:                                               ; preds = %81
  %95 = load i64, ptr %21, align 8
  %96 = load ptr, ptr %14, align 8
  %97 = load i32, ptr %20, align 4
  %98 = sext i32 %97 to i64
  %99 = getelementptr inbounds i64, ptr %96, i64 %98
  %100 = load i64, ptr %99, align 8
  %101 = icmp ult i64 %95, %100
  br i1 %101, label %102, label %103

102:                                              ; preds = %94
  store i1 false, ptr %10, align 1
  store i32 1, ptr %22, align 4
  br label %109

103:                                              ; preds = %94
  br label %104

104:                                              ; preds = %103, %93
  br label %105

105:                                              ; preds = %104, %68
  %106 = load i32, ptr %20, align 4
  %107 = add nsw i32 %106, 1
  store i32 %107, ptr %20, align 4
  br label %30, !llvm.loop !31

108:                                              ; preds = %30
  store i1 true, ptr %10, align 1
  store i32 1, ptr %22, align 4
  br label %109

109:                                              ; preds = %108, %102, %92, %28
  call void @llvm.lifetime.end.p0(i64 8, ptr %21) #8
  call void @llvm.lifetime.end.p0(i64 4, ptr %20) #8
  %110 = load i1, ptr %10, align 1
  ret i1 %110
}