; Function Attrs: nofree norecurse nosync nounwind memory(read, argmem: readwrite, inaccessiblemem: none) uwtable
define internal fastcc noundef zeroext i1 @_validate_tres_limits_for_assoc(ptr noundef nonnull writeonly captures(none) %0, ptr noundef readonly captures(none) %1, i64 noundef %2, ptr noundef readonly captures(none) %3, ptr noundef readonly captures(none) %4, ptr noundef readonly captures(none) %5, i1 noundef zeroext %6, i1 noundef zeroext %7) unnamed_addr #7 {
  %9 = load i32, ptr @g_tres_count, align 4
  %10 = icmp ne i32 %9, 0
  %or.cond46 = select i1 %6, i1 %10, i1 false
  br i1 %or.cond46, label %.lr.ph, label %.loopexit

.lr.ph:                                           ; preds = %8
  %.not30 = icmp eq i64 %2, 0
  br i1 %.not30, label %.lr.ph.split.us, label %.lr.ph.split

.lr.ph.split.us:                                  ; preds = %.lr.ph
  br i1 %7, label %.lr.ph.split.us.split.us, label %.lr.ph.split.us.split

.lr.ph.split.us.split.us:                         ; preds = %.lr.ph.split.us, %26
  %indvars.iv60 = phi i64 [ %indvars.iv.next61, %26 ], [ 0, %.lr.ph.split.us ]
  %11 = trunc nuw nsw i64 %indvars.iv60 to i32
  store i32 %11, ptr %0, align 4
  %12 = getelementptr inbounds nuw i16, ptr %5, i64 %indvars.iv60
  %13 = load i16, ptr %12, align 2
  %14 = icmp eq i16 %13, -1
  br i1 %14, label %26, label %15

15:                                               ; preds = %.lr.ph.split.us.split.us
  %16 = getelementptr inbounds nuw i64, ptr %4, i64 %indvars.iv60
  %17 = load i64, ptr %16, align 8
  %.not.us.us = icmp eq i64 %17, -1
  br i1 %.not.us.us, label %18, label %26

18:                                               ; preds = %15
  %19 = getelementptr inbounds nuw i64, ptr %3, i64 %indvars.iv60
  %20 = load i64, ptr %19, align 8
  %21 = icmp eq i64 %20, -1
  br i1 %21, label %26, label %22

22:                                               ; preds = %18
  %23 = getelementptr inbounds nuw i64, ptr %1, i64 %indvars.iv60
  %24 = load i64, ptr %23, align 8
  %25 = icmp ugt i64 %24, %20
  br i1 %25, label %.loopexit, label %26

26:                                               ; preds = %22, %18, %15, %.lr.ph.split.us.split.us
  %indvars.iv.next61 = add nuw nsw i64 %indvars.iv60, 1
  %27 = load i32, ptr @g_tres_count, align 4
  %28 = zext i32 %27 to i64
  %29 = icmp samesign ult i64 %indvars.iv.next61, %28
  br i1 %29, label %.lr.ph.split.us.split.us, label %.loopexit, !llvm.loop !32

.lr.ph.split.us.split:                            ; preds = %.lr.ph.split.us, %45
  %indvars.iv57 = phi i64 [ %indvars.iv.next58, %45 ], [ 0, %.lr.ph.split.us ]
  %30 = trunc nuw nsw i64 %indvars.iv57 to i32
  store i32 %30, ptr %0, align 4
  %31 = getelementptr inbounds nuw i16, ptr %5, i64 %indvars.iv57
  %32 = load i16, ptr %31, align 2
  %33 = icmp eq i16 %32, -1
  br i1 %33, label %45, label %34

34:                                               ; preds = %.lr.ph.split.us.split
  %35 = getelementptr inbounds nuw i64, ptr %4, i64 %indvars.iv57
  %36 = load i64, ptr %35, align 8
  %.not.us = icmp eq i64 %36, -1
  br i1 %.not.us, label %37, label %45

37:                                               ; preds = %34
  %38 = getelementptr inbounds nuw i64, ptr %3, i64 %indvars.iv57
  %39 = load i64, ptr %38, align 8
  %40 = icmp eq i64 %39, -1
  br i1 %40, label %45, label %41

41:                                               ; preds = %37
  %42 = getelementptr inbounds nuw i64, ptr %1, i64 %indvars.iv57
  %43 = load i64, ptr %42, align 8
  %44 = icmp ugt i64 %43, %39
  br i1 %44, label %.loopexit, label %45

45:                                               ; preds = %41, %37, %34, %.lr.ph.split.us.split
  %indvars.iv.next58 = add nuw nsw i64 %indvars.iv57, 1
  %46 = load i32, ptr @g_tres_count, align 4
  %47 = zext i32 %46 to i64
  %48 = icmp samesign ult i64 %indvars.iv.next58, %47
  br i1 %48, label %.lr.ph.split.us.split, label %.loopexit, !llvm.loop !32

.lr.ph.split:                                     ; preds = %.lr.ph
  br i1 %7, label %.lr.ph.split.split.us, label %.lr.ph.split.split

.lr.ph.split.split.us:                            ; preds = %.lr.ph.split, %65
  %indvars.iv54 = phi i64 [ %indvars.iv.next55, %65 ], [ 0, %.lr.ph.split ]
  %49 = trunc nuw nsw i64 %indvars.iv54 to i32
  store i32 %49, ptr %0, align 4
  %50 = getelementptr inbounds nuw i16, ptr %5, i64 %indvars.iv54
  %51 = load i16, ptr %50, align 2
  %52 = icmp eq i16 %51, -1
  br i1 %52, label %65, label %53

53:                                               ; preds = %.lr.ph.split.split.us
  %54 = getelementptr inbounds nuw i64, ptr %4, i64 %indvars.iv54
  %55 = load i64, ptr %54, align 8
  %.not.us36 = icmp eq i64 %55, -1
  br i1 %.not.us36, label %56, label %65

56:                                               ; preds = %53
  %57 = getelementptr inbounds nuw i64, ptr %3, i64 %indvars.iv54
  %58 = load i64, ptr %57, align 8
  %59 = icmp eq i64 %58, -1
  br i1 %59, label %65, label %60

60:                                               ; preds = %56
  %61 = getelementptr inbounds nuw i64, ptr %1, i64 %indvars.iv54
  %62 = load i64, ptr %61, align 8
  %63 = udiv i64 %62, %2
  %64 = icmp ugt i64 %63, %58
  br i1 %64, label %.loopexit, label %65

65:                                               ; preds = %60, %56, %53, %.lr.ph.split.split.us
  %indvars.iv.next55 = add nuw nsw i64 %indvars.iv54, 1
  %66 = load i32, ptr @g_tres_count, align 4
  %67 = zext i32 %66 to i64
  %68 = icmp samesign ult i64 %indvars.iv.next55, %67
  br i1 %68, label %.lr.ph.split.split.us, label %.loopexit, !llvm.loop !32

.lr.ph.split.split:                               ; preds = %.lr.ph.split, %86
  %indvars.iv = phi i64 [ %indvars.iv.next, %86 ], [ 0, %.lr.ph.split ]
  %69 = trunc nuw nsw i64 %indvars.iv to i32
  store i32 %69, ptr %0, align 4
  %70 = getelementptr inbounds nuw i16, ptr %5, i64 %indvars.iv
  %71 = load i16, ptr %70, align 2
  %72 = icmp eq i16 %71, -1
  br i1 %72, label %86, label %73

73:                                               ; preds = %.lr.ph.split.split
  %74 = getelementptr inbounds nuw i64, ptr %4, i64 %indvars.iv
  %75 = load i64, ptr %74, align 8
  %.not = icmp eq i64 %75, -1
  br i1 %.not, label %76, label %86

76:                                               ; preds = %73
  %77 = getelementptr inbounds nuw i64, ptr %3, i64 %indvars.iv
  %78 = load i64, ptr %77, align 8
  %79 = icmp eq i64 %78, -1
  br i1 %79, label %86, label %80

80:                                               ; preds = %76
  %81 = getelementptr inbounds nuw i64, ptr %1, i64 %indvars.iv
  %82 = load i64, ptr %81, align 8
  %.not29.not = icmp eq i64 %82, 0
  br i1 %.not29.not, label %86, label %83

83:                                               ; preds = %80
  %84 = udiv i64 %82, %2
  %85 = icmp ugt i64 %84, %78
  br i1 %85, label %.loopexit, label %86

86:                                               ; preds = %80, %83, %.lr.ph.split.split, %73, %76
  %indvars.iv.next = add nuw nsw i64 %indvars.iv, 1
  %87 = load i32, ptr @g_tres_count, align 4
  %88 = zext i32 %87 to i64
  %89 = icmp samesign ult i64 %indvars.iv.next, %88
  br i1 %89, label %.lr.ph.split.split, label %.loopexit, !llvm.loop !32

.loopexit:                                        ; preds = %83, %86, %60, %65, %41, %45, %22, %26, %8
  %.027 = phi i1 [ true, %8 ], [ false, %22 ], [ true, %26 ], [ false, %41 ], [ true, %45 ], [ false, %60 ], [ true, %65 ], [ false, %83 ], [ true, %86 ]
  ret i1 %.027
}